target datalayout = "e-m:e-p270:32:32-p271:32:32-p272:64:64-i64:64-i128:128-f80:128-n8:16:32:64-S128"
target triple = "x86_64-pc-linux-gnu"

%struct.ParamListInfoData = type { ptr, ptr, ptr, ptr, ptr, ptr, ptr, i32, [0 x %struct.ParamExternData] }
%struct.ParamExternData = type { i64, i8, i16, i32 }

; Function Attrs: nounwind uwtable
define dso_local ptr @makeParamList(i32 noundef %0) #0 {
  %2 = alloca i32, align 4
  %3 = alloca ptr, align 8
  %4 = alloca i64, align 8
  store i32 %0, ptr %2, align 4
  call void @llvm.lifetime.start.p0(i64 8, ptr %3) #5
  call void @llvm.lifetime.start.p0(i64 8, ptr %4) #5
  %5 = load i32, ptr %2, align 4
  %6 = sext i32 %5 to i64
  %7 = mul i64 %6, 16
  %8 = add i64 64, %7
  store i64 %8, ptr %4, align 8
  %9 = load i64, ptr %4, align 8
  %10 = call ptr @palloc(i64 noundef %9)
  store ptr %10, ptr %3, align 8
  %11 = load ptr, ptr %3, align 8
  %12 = getelementptr inbounds nuw %struct.ParamListInfoData, ptr %11, i32 0, i32 0
  store ptr null, ptr %12, align 8
  %13 = load ptr, ptr %3, align 8
  %14 = getelementptr inbounds nuw %struct.ParamListInfoData, ptr %13, i32 0, i32 1
  store ptr null, ptr %14, align 8
  %15 = load ptr, ptr %3, align 8
  %16 = getelementptr inbounds nuw %struct.ParamListInfoData, ptr %15, i32 0, i32 2
  store ptr null, ptr %16, align 8
  %17 = load ptr, ptr %3, align 8
  %18 = getelementptr inbounds nuw %struct.ParamListInfoData, ptr %17, i32 0, i32 3
  store ptr null, ptr %18, align 8
  %19 = load ptr, ptr %3, align 8
  %20 = getelementptr inbounds nuw %struct.ParamListInfoData, ptr %19, i32 0, i32 4
  store ptr @paramlist_parser_setup, ptr %20, align 8
  %21 = load ptr, ptr %3, align 8
  %22 = load ptr, ptr %3, align 8
  %23 = getelementptr inbounds nuw %struct.ParamListInfoData, ptr %22, i32 0, i32 5
  store ptr %21, ptr %23, align 8
  %24 = load ptr, ptr %3, align 8
  %25 = getelementptr inbounds nuw %struct.ParamListInfoData, ptr %24, i32 0, i32 6
  store ptr null, ptr %25, align 8
  %26 = load i32, ptr %2, align 4
  %27 = load ptr, ptr %3, align 8
  %28 = getelementptr inbounds nuw %struct.ParamListInfoData, ptr %27, i32 0, i32 7
  store i32 %26, ptr %28, align 8
  %29 = load ptr, ptr %3, align 8
  call void @llvm.lifetime.end.p0(i64 8, ptr %4) #5
  call void @llvm.lifetime.end.p0(i64 8, ptr %3) #5
  ret ptr %29
}

; Function Attrs: nounwind uwtable
define dso_local ptr @copyParamList(ptr noundef %0) #0 {
  %2 = alloca ptr, align 8
  %3 = alloca ptr, align 8
  %4 = alloca ptr, align 8
  %5 = alloca i32, align 4
  %6 = alloca i32, align 4
  %7 = alloca ptr, align 8
  %8 = alloca ptr, align 8
  %9 = alloca %struct.ParamExternData, align 8
  %10 = alloca i16, align 2
  %11 = alloca i8, align 1
  store ptr %0, ptr %3, align 8
  call void @llvm.lifetime.start.p0(i64 8, ptr %4) #5
  %12 = load ptr, ptr %3, align 8
  %13 = icmp eq ptr %12, null
  br i1 %13, label %19, label %14

14:                                               ; preds = %1
  %15 = load ptr, ptr %3, align 8
  %16 = getelementptr inbounds nuw %struct.ParamListInfoData, ptr %15, i32 0, i32 7
  %17 = load i32, ptr %16, align 8
  %18 = icmp sle i32 %17, 0
  br i1 %18, label %19, label %20

19:                                               ; preds = %14, %1
  store ptr null, ptr %2, align 8
  store i32 1, ptr %5, align 4
  br label %91

20:                                               ; preds = %14
  %21 = load ptr, ptr %3, align 8
  %22 = getelementptr inbounds nuw %struct.ParamListInfoData, ptr %21, i32 0, i32 7
  %23 = load i32, ptr %22, align 8
  %24 = call ptr @makeParamList(i32 noundef %23)
  store ptr %24, ptr %4, align 8
  call void @llvm.lifetime.start.p0(i64 4, ptr %6) #5
  store i32 0, ptr %6, align 4
  br label %25

25:                                               ; preds = %86, %20
  %26 = load i32, ptr %6, align 4
  %27 = load ptr, ptr %3, align 8
  %28 = getelementptr inbounds nuw %struct.ParamListInfoData, ptr %27, i32 0, i32 7
  %29 = load i32, ptr %28, align 8
  %30 = icmp slt i32 %26, %29
  br i1 %30, label %32, label %31

31:                                               ; preds = %25
  store i32 2, ptr %5, align 4
  call void @llvm.lifetime.end.p0(i64 4, ptr %6) #5
  br label %89

32:                                               ; preds = %25
  call void @llvm.lifetime.start.p0(i64 8, ptr %7) #5
  call void @llvm.lifetime.start.p0(i64 8, ptr %8) #5
  %33 = load ptr, ptr %4, align 8
  %34 = getelementptr inbounds nuw %struct.ParamListInfoData, ptr %33, i32 0, i32 8
  %35 = load i32, ptr %6, align 4
  %36 = sext i32 %35 to i64
  %37 = getelementptr inbounds [0 x %struct.ParamExternData], ptr %34, i64 0, i64 %36
  store ptr %37, ptr %8, align 8
  call void @llvm.lifetime.start.p0(i64 16, ptr %9) #5
  call void @llvm.lifetime.start.p0(i64 2, ptr %10) #5
  call void @llvm.lifetime.start.p0(i64 1, ptr %11) #5
  %38 = load ptr, ptr %3, align 8
  %39 = getelementptr inbounds nuw %struct.ParamListInfoData, ptr %38, i32 0, i32 0
  %40 = load ptr, ptr %39, align 8
  %41 = icmp ne ptr %40, null
  br i1 %41, label %42, label %50

42:                                               ; preds = %32
  %43 = load ptr, ptr %3, align 8
  %44 = getelementptr inbounds nuw %struct.ParamListInfoData, ptr %43, i32 0, i32 0
  %45 = load ptr, ptr %44, align 8
  %46 = load ptr, ptr %3, align 8
  %47 = load i32, ptr %6, align 4
  %48 = add i32 %47, 1
  %49 = call ptr %45(ptr noundef %46, i32 noundef %48, i1 noundef zeroext false, ptr noundef %9)
  store ptr %49, ptr %7, align 8
  br label %56

50:                                               ; preds = %32
  %51 = load ptr, ptr %3, align 8
  %52 = getelementptr inbounds nuw %struct.ParamListInfoData, ptr %51, i32 0, i32 8
  %53 = load i32, ptr %6, align 4
  %54 = sext i32 %53 to i64
  %55 = getelementptr inbounds [0 x %struct.ParamExternData], ptr %52, i64 0, i64 %54
  store ptr %55, ptr %7, align 8
  br label %56

56:                                               ; preds = %50, %42
  %57 = load ptr, ptr %8, align 8
  %58 = load ptr, ptr %7, align 8
  call void @llvm.memcpy.p0.p0.i64(ptr align 8 %57, ptr align 8 %58, i64 16, i1 false)
  %59 = load ptr, ptr %8, align 8
  %60 = getelementptr inbounds nuw %struct.ParamExternData, ptr %59, i32 0, i32 1
  %61 = load i8, ptr %60, align 8, !range !4, !noundef !5
  %62 = trunc i8 %61 to i1
  br i1 %62, label %68, label %63

63:                                               ; preds = %56
  %64 = load ptr, ptr %8, align 8
  %65 = getelementptr inbounds nuw %struct.ParamExternData, ptr %64, i32 0, i32 3
  %66 = load i32, ptr %65, align 4
  %67 = icmp ne i32 %66, 0
  br i1 %67, label %69, label %68

68:                                               ; preds = %63, %56
  store i32 4, ptr %5, align 4
  br label %83

69:                                               ; preds = %63
  %70 = load ptr, ptr %8, align 8
  %71 = getelementptr inbounds nuw %struct.ParamExternData, ptr %70, i32 0, i32 3
  %72 = load i32, ptr %71, align 4
  call void @get_typlenbyval(i32 noundef %72, ptr noundef %10, ptr noundef %11)
  %73 = load ptr, ptr %8, align 8
  %74 = getelementptr inbounds nuw %struct.ParamExternData, ptr %73, i32 0, i32 0
  %75 = load i64, ptr %74, align 8
  %76 = load i8, ptr %11, align 1, !range !4, !noundef !5
  %77 = trunc i8 %76 to i1
  %78 = load i16, ptr %10, align 2
  %79 = sext i16 %78 to i32
  %80 = call i64 @datumCopy(i64 noundef %75, i1 noundef zeroext %77, i32 noundef %79)
  %81 = load ptr, ptr %8, align 8
  %82 = getelementptr inbounds nuw %struct.ParamExternData, ptr %81, i32 0, i32 0
  store i64 %80, ptr %82, align 8
  store i32 0, ptr %5, align 4
  br label %83

83:                                               ; preds = %69, %68
  call void @llvm.lifetime.end.p0(i64 1, ptr %11) #5
  call void @llvm.lifetime.end.p0(i64 2, ptr %10) #5
  call void @llvm.lifetime.end.p0(i64 16, ptr %9) #5
  call void @llvm.lifetime.end.p0(i64 8, ptr %8) #5
  call void @llvm.lifetime.end.p0(i64 8, ptr %7) #5
  %84 = load i32, ptr %5, align 4
  switch i32 %84, label %93 [
    i32 0, label %85
    i32 4, label %86
  ]

85:                                               ; preds = %83
  br label %86

86:                                               ; preds = %85, %83
  %87 = load i32, ptr %6, align 4
  %88 = add i32 %87, 1
  store i32 %88, ptr %6, align 4
  br label %25, !llvm.loop !6

89:                                               ; preds = %31
  %90 = load ptr, ptr %4, align 8
  store ptr %90, ptr %2, align 8
  store i32 1, ptr %5, align 4
  br label %91

91:                                               ; preds = %89, %19
  call void @llvm.lifetime.end.p0(i64 8, ptr %4) #5
  %92 = load ptr, ptr %2, align 8
  ret ptr %92

93:                                               ; preds = %83
  unreachable
}