; Function Attrs: nounwind uwtable
define dso_local noundef ptr @copyParamList(ptr noundef %0) local_unnamed_addr #0 {
  %2 = alloca %struct.ParamExternData, align 8
  %3 = alloca i16, align 2
  %4 = alloca i8, align 1
  %5 = icmp eq ptr %0, null
  br i1 %5, label %.loopexit, label %6

6:                                                ; preds = %1
  %7 = getelementptr inbounds nuw i8, ptr %0, i64 56
  %8 = load i32, ptr %7, align 8
  %9 = icmp slt i32 %8, 1
  br i1 %9, label %.loopexit, label %10

10:                                               ; preds = %6
  %11 = zext nneg i32 %8 to i64
  %12 = shl nuw nsw i64 %11, 4
  %13 = add nuw nsw i64 %12, 64
  %14 = tail call ptr @palloc(i64 noundef %13) #7
  %15 = getelementptr inbounds nuw i8, ptr %14, i64 32
  tail call void @llvm.memset.p0.i64(ptr noundef nonnull align 8 dereferenceable(32) %14, i8 0, i64 32, i1 false)
  store ptr @paramlist_parser_setup, ptr %15, align 8
  %16 = getelementptr inbounds nuw i8, ptr %14, i64 40
  store ptr %14, ptr %16, align 8
  %17 = getelementptr inbounds nuw i8, ptr %14, i64 48
  store ptr null, ptr %17, align 8
  %18 = getelementptr inbounds nuw i8, ptr %14, i64 56
  store i32 %8, ptr %18, align 8
  %19 = load i32, ptr %7, align 8
  %20 = icmp sgt i32 %19, 0
  br i1 %20, label %.lr.ph, label %.loopexit

.lr.ph:                                           ; preds = %10
  %21 = getelementptr inbounds nuw i8, ptr %14, i64 64
  %22 = getelementptr inbounds nuw i8, ptr %0, i64 64
  br label %23

23:                                               ; preds = %.lr.ph, %46
  %indvars.iv = phi i64 [ 0, %.lr.ph ], [ %indvars.iv.next, %46 ]
  %24 = getelementptr inbounds nuw [0 x %struct.ParamExternData], ptr %21, i64 0, i64 %indvars.iv
  call void @llvm.lifetime.start.p0(i64 16, ptr nonnull %2) #7
  call void @llvm.lifetime.start.p0(i64 2, ptr nonnull %3) #7
  call void @llvm.lifetime.start.p0(i64 1, ptr nonnull %4) #7
  %25 = load ptr, ptr %0, align 8
  %.not = icmp eq ptr %25, null
  br i1 %.not, label %30, label %26

26:                                               ; preds = %23
  %27 = trunc i64 %indvars.iv to i32
  %28 = add i32 %27, 1
  %29 = call ptr %25(ptr noundef nonnull %0, i32 noundef %28, i1 noundef zeroext false, ptr noundef nonnull %2) #7
  br label %32

30:                                               ; preds = %23
  %31 = getelementptr inbounds nuw [0 x %struct.ParamExternData], ptr %22, i64 0, i64 %indvars.iv
  br label %32

32:                                               ; preds = %30, %26
  %.022 = phi ptr [ %29, %26 ], [ %31, %30 ]
  call void @llvm.memcpy.p0.p0.i64(ptr noundef nonnull align 8 dereferenceable(16) %24, ptr noundef nonnull align 8 dereferenceable(16) %.022, i64 16, i1 false)
  %33 = getelementptr inbounds nuw i8, ptr %24, i64 8
  %34 = load i8, ptr %33, align 8, !range !4, !noundef !5
  %35 = trunc nuw i8 %34 to i1
  br i1 %35, label %46, label %36

36:                                               ; preds = %32
  %37 = getelementptr inbounds nuw i8, ptr %24, i64 12
  %38 = load i32, ptr %37, align 4
  %.not28 = icmp eq i32 %38, 0
  br i1 %.not28, label %46, label %39

39:                                               ; preds = %36
  call void @get_typlenbyval(i32 noundef %38, ptr noundef nonnull %3, ptr noundef nonnull %4) #7
  %40 = load i64, ptr %24, align 8
  %41 = load i8, ptr %4, align 1, !range !4, !noundef !5
  %42 = trunc nuw i8 %41 to i1
  %43 = load i16, ptr %3, align 2
  %44 = sext i16 %43 to i32
  %45 = call i64 @datumCopy(i64 noundef %40, i1 noundef zeroext %42, i32 noundef %44) #7
  store i64 %45, ptr %24, align 8
  br label %46

46:                                               ; preds = %32, %36, %39
  call void @llvm.lifetime.end.p0(i64 1, ptr nonnull %4) #7
  call void @llvm.lifetime.end.p0(i64 2, ptr nonnull %3) #7
  call void @llvm.lifetime.end.p0(i64 16, ptr nonnull %2) #7
  %indvars.iv.next = add nuw nsw i64 %indvars.iv, 1
  %47 = load i32, ptr %7, align 8
  %48 = sext i32 %47 to i64
  %49 = icmp slt i64 %indvars.iv.next, %48
  br i1 %49, label %23, label %.loopexit, !llvm.loop !6

.loopexit:                                        ; preds = %46, %10, %1, %6
  %.0 = phi ptr [ null, %6 ], [ null, %1 ], [ %14, %10 ], [ %14, %46 ]
  ret ptr %.0
}